target datalayout = "e-m:e-p270:32:32-p271:32:32-p272:64:64-i64:64-i128:128-f80:128-n8:16:32:64-S128"
target triple = "x86_64-pc-linux-gnu"

; Function Attrs: mustprogress uwtable
define hidden noundef ptr @_Z23pj_create_argv_internalP6pj_ctxiPPc(ptr noundef %0, i32 noundef %1, ptr noundef %2) #0 {
  %4 = alloca ptr, align 8
  %5 = alloca ptr, align 8
  %6 = alloca i32, align 4
  %7 = alloca ptr, align 8
  %8 = alloca i32, align 4
  %9 = alloca ptr, align 8
  %10 = alloca i32, align 4
  %11 = alloca i32, align 4
  store ptr %0, ptr %5, align 8, !tbaa !3
  store i32 %1, ptr %6, align 4, !tbaa !17
  store ptr %2, ptr %7, align 8, !tbaa !12
  %12 = load ptr, ptr %5, align 8, !tbaa !3
  %13 = icmp eq ptr null, %12
  br i1 %13, label %14, label %16

14:                                               ; preds = %3
  %15 = call noundef ptr @_Z18pj_get_default_ctxv()
  store ptr %15, ptr %5, align 8, !tbaa !3
  br label %16

16:                                               ; preds = %14, %3
  %17 = load ptr, ptr %7, align 8, !tbaa !12
  %18 = icmp eq ptr null, %17
  br i1 %18, label %19, label %21

19:                                               ; preds = %16
  %20 = load ptr, ptr %5, align 8, !tbaa !3
  call void @_Z22proj_context_errno_setP6pj_ctxi(ptr noundef %20, i32 noundef 1026)
  store ptr null, ptr %4, align 8
  br label %39

21:                                               ; preds = %16
  call void @llvm.lifetime.start.p0(i64 4, ptr %8) #15
  %22 = load ptr, ptr %5, align 8, !tbaa !3
  %23 = call i32 @proj_context_get_use_proj4_init_rules(ptr noundef %22, i32 noundef 0)
  store i32 %23, ptr %8, align 4, !tbaa !17
  call void @llvm.lifetime.start.p0(i64 8, ptr %9) #15
  %24 = load ptr, ptr %5, align 8, !tbaa !3
  %25 = load i32, ptr %6, align 4, !tbaa !17
  %26 = load ptr, ptr %7, align 8, !tbaa !12
  %27 = load i32, ptr %8, align 4, !tbaa !17
  %28 = call noundef ptr @_Z32pj_init_ctx_with_allow_init_epsgP6pj_ctxiPPci(ptr noundef %24, i32 noundef %25, ptr noundef %26, i32 noundef %27)
  store ptr %28, ptr %9, align 8, !tbaa !15
  call void @llvm.lifetime.start.p0(i64 4, ptr %10) #15
  %29 = load ptr, ptr %9, align 8, !tbaa !15
  %30 = call noundef i32 @_ZL21cs2cs_emulation_setupP8PJconsts(ptr noundef %29)
  store i32 %30, ptr %10, align 4, !tbaa !17
  %31 = load i32, ptr %10, align 4, !tbaa !17
  %32 = icmp eq i32 0, %31
  br i1 %32, label %33, label %36

33:                                               ; preds = %21
  %34 = load ptr, ptr %9, align 8, !tbaa !15
  %35 = call ptr @proj_destroy(ptr noundef %34)
  store ptr %35, ptr %4, align 8
  store i32 1, ptr %11, align 4
  br label %38

36:                                               ; preds = %21
  %37 = load ptr, ptr %9, align 8, !tbaa !15
  store ptr %37, ptr %4, align 8
  store i32 1, ptr %11, align 4
  br label %38

38:                                               ; preds = %36, %33
  call void @llvm.lifetime.end.p0(i64 4, ptr %10) #15
  call void @llvm.lifetime.end.p0(i64 8, ptr %9) #15
  call void @llvm.lifetime.end.p0(i64 4, ptr %8) #15
  br label %39

39:                                               ; preds = %38, %19
  %40 = load ptr, ptr %4, align 8
  ret ptr %40
}