; Function Attrs: mustprogress uwtable
define hidden noundef ptr @_Z23pj_create_argv_internalP6pj_ctxiPPc(ptr noundef %0, i32 noundef %1, ptr noundef %2) local_unnamed_addr #0 {
  %4 = icmp eq ptr %0, null
  br i1 %4, label %5, label %7

5:                                                ; preds = %3
  %6 = tail call noundef ptr @_Z18pj_get_default_ctxv()
  br label %7

7:                                                ; preds = %5, %3
  %.012 = phi ptr [ %6, %5 ], [ %0, %3 ]
  %8 = icmp eq ptr %2, null
  br i1 %8, label %9, label %10

9:                                                ; preds = %7
  tail call void @_Z22proj_context_errno_setP6pj_ctxi(ptr noundef %.012, i32 noundef 1026)
  br label %17

10:                                               ; preds = %7
  %11 = tail call i32 @proj_context_get_use_proj4_init_rules(ptr noundef %.012, i32 noundef 0)
  %12 = tail call noundef ptr @_Z32pj_init_ctx_with_allow_init_epsgP6pj_ctxiPPci(ptr noundef %.012, i32 noundef %1, ptr noundef nonnull %2, i32 noundef %11)
  %13 = tail call fastcc noundef i32 @_ZL21cs2cs_emulation_setupP8PJconsts(ptr noundef %12)
  %14 = icmp eq i32 %13, 0
  br i1 %14, label %15, label %17

15:                                               ; preds = %10
  %16 = tail call ptr @proj_destroy(ptr noundef %12)
  br label %17

17:                                               ; preds = %15, %10, %9
  %.0 = phi ptr [ null, %9 ], [ %16, %15 ], [ %12, %10 ]
  ret ptr %.0
}